target datalayout = "e-m:e-p270:32:32-p271:32:32-p272:64:64-i64:64-i128:128-f80:128-n8:16:32:64-S128"
target triple = "x86_64-pc-linux-gnu"

%"class.tbb::detail::d1::cache_aligned_allocator" = type { i8 }
%"class.tbb::detail::r1::input_buffer" = type <{ ptr, i64, i64, %"class.tbb::detail::d1::spin_mutex", [7 x i8], i64, i8, [3 x i8], %"class.tbb::detail::r1::basic_tls", i8, [7 x i8] }>
%"class.tbb::detail::d1::spin_mutex" = type { %"struct.std::atomic" }
%"struct.std::atomic" = type { %"struct.std::__atomic_base" }
%"struct.std::__atomic_base" = type { i8 }
%"class.tbb::detail::r1::basic_tls" = type { i32 }
%"class.tbb::detail::r1::pipeline" = type { ptr, ptr, ptr, %"struct.std::atomic.0", %"struct.std::atomic", %"class.tbb::detail::d1::wait_context" }
%"struct.std::atomic.0" = type { %"struct.std::__atomic_base.1" }
%"struct.std::__atomic_base.1" = type { i64 }
%"class.tbb::detail::d1::wait_context" = type { i64, %"struct.std::atomic.0" }
%"class.tbb::detail::d1::base_filter" = type { ptr, ptr, ptr, i32, ptr }

@.str = private unnamed_addr constant [29 x i8] c"Failed to destroy filter TLS\00", align 1

; Function Attrs: mustprogress nounwind sspstrong uwtable
define linkonce_odr noundef i32 @_ZN3tbb6detail2r19basic_tlsIPNS1_12input_bufferEE7destroyEv(ptr noundef nonnull align 4 dereferenceable(4) %0) #3 comdat align 2 {
  %2 = alloca ptr, align 8
  store ptr %0, ptr %2, align 8, !tbaa !101
  %3 = load ptr, ptr %2, align 8
  %4 = getelementptr inbounds nuw %"class.tbb::detail::r1::basic_tls", ptr %3, i32 0, i32 0
  %5 = load i32, ptr %4, align 4, !tbaa !103
  %6 = call i32 @pthread_key_delete(i32 noundef %5) #12
  ret i32 %6
}

; Function Attrs: mustprogress sspstrong uwtable
define linkonce_odr void @_ZN3tbb6detail2r112input_buffer14destroy_my_tlsEv(ptr noundef nonnull align 8 dereferenceable(49) %0) #0 comdat align 2 {
  %2 = alloca ptr, align 8
  %3 = alloca i32, align 4
  store ptr %0, ptr %2, align 8, !tbaa !3
  %4 = load ptr, ptr %2, align 8
  call void @llvm.lifetime.start.p0(i64 4, ptr %3) #12
  %5 = getelementptr inbounds nuw %"class.tbb::detail::r1::input_buffer", ptr %4, i32 0, i32 8
  %6 = call noundef i32 @_ZN3tbb6detail2r19basic_tlsIPNS1_12input_bufferEE7destroyEv(ptr noundef nonnull align 4 dereferenceable(4) %5)
  store i32 %6, ptr %3, align 4, !tbaa !81
  %7 = load i32, ptr %3, align 4, !tbaa !81
  %8 = icmp ne i32 %7, 0
  br i1 %8, label %9, label %11

9:                                                ; preds = %1
  %10 = load i32, ptr %3, align 4, !tbaa !81
  call void @_ZN3tbb6detail2r113handle_perrorEiPKc(i32 noundef %10, ptr noundef @.str)
  br label %11

11:                                               ; preds = %9, %1
  call void @llvm.lifetime.end.p0(i64 4, ptr %3) #12
  ret void
}

; Function Attrs: inlinehint mustprogress nounwind sspstrong uwtable
define linkonce_odr void @_ZN3tbb6detail2d014poison_pointerIPNS0_2r19task_infoEEEvRT_(ptr noundef nonnull align 8 dereferenceable(8) %0) #8 comdat {
  %2 = alloca ptr, align 8
  store ptr %0, ptr %2, align 8, !tbaa !116
  ret void
}

; Function Attrs: mustprogress sspstrong uwtable
define linkonce_odr void @_ZN3tbb6detail2d123cache_aligned_allocatorINS0_2r19task_infoEE10deallocateEPS4_m(ptr noundef nonnull align 1 dereferenceable(1) %0, ptr noundef %1, i64 noundef %2) #0 comdat align 2 {
  %4 = alloca ptr, align 8
  %5 = alloca ptr, align 8
  %6 = alloca i64, align 8
  store ptr %0, ptr %4, align 8, !tbaa !31
  store ptr %1, ptr %5, align 8, !tbaa !21
  store i64 %2, ptr %6, align 8, !tbaa !8
  %7 = load ptr, ptr %5, align 8, !tbaa !21
  call void @_ZN3tbb6detail2r124cache_aligned_deallocateEPv(ptr noundef %7)
  ret void
}

; Function Attrs: mustprogress nounwind sspstrong uwtable
define linkonce_odr void @_ZN3tbb6detail2d112wait_contextD2Ev(ptr noundef nonnull align 8 dereferenceable(16) %0) unnamed_addr #3 comdat align 2 {
  %2 = alloca ptr, align 8
  store ptr %0, ptr %2, align 8, !tbaa !77
  ret void
}

; Function Attrs: mustprogress nounwind sspstrong uwtable
define linkonce_odr void @_ZN3tbb6detail2r112input_bufferD2Ev(ptr noundef nonnull align 8 dereferenceable(49) %0) unnamed_addr #3 comdat align 2 personality ptr @__gxx_personality_v0 {
  %2 = alloca ptr, align 8
  %3 = alloca %"class.tbb::detail::d1::cache_aligned_allocator", align 1
  store ptr %0, ptr %2, align 8, !tbaa !3
  %4 = load ptr, ptr %2, align 8
  call void @llvm.lifetime.start.p0(i64 1, ptr %3) #12
  %5 = getelementptr inbounds nuw %"class.tbb::detail::r1::input_buffer", ptr %4, i32 0, i32 0
  %6 = load ptr, ptr %5, align 8, !tbaa !22
  %7 = getelementptr inbounds nuw %"class.tbb::detail::r1::input_buffer", ptr %4, i32 0, i32 1
  %8 = load i64, ptr %7, align 8, !tbaa !10
  invoke void @_ZN3tbb6detail2d123cache_aligned_allocatorINS0_2r19task_infoEE10deallocateEPS4_m(ptr noundef nonnull align 1 dereferenceable(1) %3, ptr noundef %6, i64 noundef %8)
          to label %9 unwind label %18

9:                                                ; preds = %1
  call void @llvm.lifetime.end.p0(i64 1, ptr %3) #12
  %10 = getelementptr inbounds nuw %"class.tbb::detail::r1::input_buffer", ptr %4, i32 0, i32 0
  invoke void @_ZN3tbb6detail2d014poison_pointerIPNS0_2r19task_infoEEEvRT_(ptr noundef nonnull align 8 dereferenceable(8) %10)
          to label %11 unwind label %18

11:                                               ; preds = %9
  %12 = getelementptr inbounds nuw %"class.tbb::detail::r1::input_buffer", ptr %4, i32 0, i32 9
  %13 = load i8, ptr %12, align 8, !tbaa !76, !range !45, !noundef !46
  %14 = trunc i8 %13 to i1
  br i1 %14, label %15, label %17

15:                                               ; preds = %11
  invoke void @_ZN3tbb6detail2r112input_buffer14destroy_my_tlsEv(ptr noundef nonnull align 8 dereferenceable(49) %4)
          to label %16 unwind label %18

16:                                               ; preds = %15
  br label %17

17:                                               ; preds = %16, %11
  ret void

18:                                               ; preds = %15, %9, %1
  %19 = landingpad { ptr, i32 }
          catch ptr null
  %20 = extractvalue { ptr, i32 } %19, 0
  call void @__clang_call_terminate(ptr %20) #13
  unreachable
}

; Function Attrs: mustprogress nounwind sspstrong uwtable
define void @_ZN3tbb6detail2r18pipelineD2Ev(ptr noundef nonnull align 8 dereferenceable(56) %0) unnamed_addr #3 align 2 personality ptr @__gxx_personality_v0 {
  %2 = alloca ptr, align 8
  %3 = alloca ptr, align 8
  %4 = alloca ptr, align 8
  store ptr %0, ptr %2, align 8, !tbaa !74
  %5 = load ptr, ptr %2, align 8
  br label %6

6:                                                ; preds = %32, %1
  %7 = getelementptr inbounds nuw %"class.tbb::detail::r1::pipeline", ptr %5, i32 0, i32 1
  %8 = load ptr, ptr %7, align 8, !tbaa !64
  %9 = icmp ne ptr %8, null
  br i1 %9, label %10, label %33

10:                                               ; preds = %6
  call void @llvm.lifetime.start.p0(i64 8, ptr %3) #12
  %11 = getelementptr inbounds nuw %"class.tbb::detail::r1::pipeline", ptr %5, i32 0, i32 1
  %12 = load ptr, ptr %11, align 8, !tbaa !64
  store ptr %12, ptr %3, align 8, !tbaa !57
  call void @llvm.lifetime.start.p0(i64 8, ptr %4) #12
  %13 = load ptr, ptr %3, align 8, !tbaa !57
  %14 = getelementptr inbounds nuw %"class.tbb::detail::d1::base_filter", ptr %13, i32 0, i32 2
  %15 = load ptr, ptr %14, align 8, !tbaa !52
  store ptr %15, ptr %4, align 8, !tbaa !3
  %16 = load ptr, ptr %4, align 8, !tbaa !3
  %17 = icmp ne ptr %16, null
  br i1 %17, label %18, label %22

18:                                               ; preds = %10
  %19 = load ptr, ptr %4, align 8, !tbaa !3
  call void @_ZN3tbb6detail2r112input_bufferD2Ev(ptr noundef nonnull align 8 dereferenceable(49) %19) #12
  %20 = load ptr, ptr %4, align 8, !tbaa !3
  invoke void @_ZN3tbb6detail2r117deallocate_memoryEPv(ptr noundef %20)
          to label %21 unwind label %35

21:                                               ; preds = %18
  br label %22

22:                                               ; preds = %21, %10
  call void @llvm.lifetime.end.p0(i64 8, ptr %4) #12
  %23 = load ptr, ptr %3, align 8, !tbaa !57
  %24 = getelementptr inbounds nuw %"class.tbb::detail::d1::base_filter", ptr %23, i32 0, i32 1
  %25 = load ptr, ptr %24, align 8, !tbaa !56
  %26 = getelementptr inbounds nuw %"class.tbb::detail::r1::pipeline", ptr %5, i32 0, i32 1
  store ptr %25, ptr %26, align 8, !tbaa !64
  %27 = load ptr, ptr %3, align 8, !tbaa !57
  %28 = load ptr, ptr %27, align 8, !tbaa !49
  %29 = getelementptr inbounds ptr, ptr %28, i64 1
  %30 = load ptr, ptr %29, align 8
  call void %30(ptr noundef nonnull align 8 dereferenceable(40) %27) #12
  %31 = load ptr, ptr %3, align 8, !tbaa !57
  invoke void @_ZN3tbb6detail2r117deallocate_memoryEPv(ptr noundef %31)
          to label %32 unwind label %35

32:                                               ; preds = %22
  call void @llvm.lifetime.end.p0(i64 8, ptr %3) #12
  br label %6, !llvm.loop !75

33:                                               ; preds = %6
  %34 = getelementptr inbounds nuw %"class.tbb::detail::r1::pipeline", ptr %5, i32 0, i32 5
  call void @_ZN3tbb6detail2d112wait_contextD2Ev(ptr noundef nonnull align 8 dereferenceable(16) %34) #12
  ret void

35:                                               ; preds = %22, %18
  %36 = landingpad { ptr, i32 }
          catch ptr null
  %37 = extractvalue { ptr, i32 } %36, 0
  call void @__clang_call_terminate(ptr %37) #13
  unreachable
}