; Function Attrs: mustprogress nounwind sspstrong uwtable
define void @_ZN3tbb6detail2r18pipelineD2Ev(ptr noundef nonnull align 8 captures(none) dereferenceable(56) %0) unnamed_addr #3 align 2 personality ptr @__gxx_personality_v0 {
  %2 = getelementptr inbounds nuw i8, ptr %0, i64 8
  br label %3

3:                                                ; preds = %21, %1
  %4 = load ptr, ptr %2, align 8, !tbaa !51
  %.not = icmp eq ptr %4, null
  br i1 %.not, label %27, label %5

5:                                                ; preds = %3
  %6 = getelementptr inbounds nuw i8, ptr %4, i64 16
  %7 = load ptr, ptr %6, align 8, !tbaa !46
  %.not9 = icmp eq ptr %7, null
  br i1 %.not9, label %21, label %8

8:                                                ; preds = %5
  %9 = load ptr, ptr %7, align 8, !tbaa !18
  invoke void @_ZN3tbb6detail2r124cache_aligned_deallocateEPv(ptr noundef %9)
          to label %_ZN3tbb6detail2d123cache_aligned_allocatorINS0_2r19task_infoEE10deallocateEPS4_m.exit.i unwind label %18

_ZN3tbb6detail2d123cache_aligned_allocatorINS0_2r19task_infoEE10deallocateEPS4_m.exit.i: ; preds = %8
  %10 = getelementptr inbounds nuw i8, ptr %7, i64 48
  %11 = load i8, ptr %10, align 8, !tbaa !67, !range !36, !noundef !37
  %12 = trunc nuw i8 %11 to i1
  br i1 %12, label %13, label %_ZN3tbb6detail2r112input_bufferD2Ev.exit

13:                                               ; preds = %_ZN3tbb6detail2d123cache_aligned_allocatorINS0_2r19task_infoEE10deallocateEPS4_m.exit.i
  %14 = getelementptr inbounds nuw i8, ptr %7, i64 44
  %15 = load i32, ptr %14, align 4, !tbaa !61
  %16 = tail call noundef i32 @pthread_key_delete(i32 noundef %15) #10
  %.not.i.i = icmp eq i32 %16, 0
  br i1 %.not.i.i, label %_ZN3tbb6detail2r112input_bufferD2Ev.exit, label %17

17:                                               ; preds = %13
  invoke void @_ZN3tbb6detail2r113handle_perrorEiPKc(i32 noundef %16, ptr noundef nonnull @.str)
          to label %_ZN3tbb6detail2r112input_bufferD2Ev.exit unwind label %18

18:                                               ; preds = %17, %8
  %19 = landingpad { ptr, i32 }
          catch ptr null
  %20 = extractvalue { ptr, i32 } %19, 0
  tail call void @__clang_call_terminate(ptr %20) #11
  unreachable

_ZN3tbb6detail2r112input_bufferD2Ev.exit:         ; preds = %_ZN3tbb6detail2d123cache_aligned_allocatorINS0_2r19task_infoEE10deallocateEPS4_m.exit.i, %13, %17
  invoke void @_ZN3tbb6detail2r117deallocate_memoryEPv(ptr noundef nonnull %7)
          to label %21 unwind label %28

21:                                               ; preds = %_ZN3tbb6detail2r112input_bufferD2Ev.exit, %5
  %22 = getelementptr inbounds nuw i8, ptr %4, i64 8
  %23 = load ptr, ptr %22, align 8, !tbaa !50
  store ptr %23, ptr %2, align 8, !tbaa !51
  %24 = load ptr, ptr %4, align 8, !tbaa !43
  %25 = getelementptr inbounds nuw i8, ptr %24, i64 8
  %26 = load ptr, ptr %25, align 8
  tail call void %26(ptr noundef nonnull align 8 dereferenceable(40) %4) #10
  invoke void @_ZN3tbb6detail2r117deallocate_memoryEPv(ptr noundef nonnull %4)
          to label %3 unwind label %28, !llvm.loop !68

27:                                               ; preds = %3
  ret void

28:                                               ; preds = %21, %_ZN3tbb6detail2r112input_bufferD2Ev.exit
  %29 = landingpad { ptr, i32 }
          catch ptr null
  %30 = extractvalue { ptr, i32 } %29, 0
  tail call void @__clang_call_terminate(ptr %30) #11
  unreachable
}